target datalayout = "e-m:e-p270:32:32-p271:32:32-p272:64:64-i64:64-i128:128-f80:128-n8:16:32:64-S128"
target triple = "x86_64-pc-linux-gnu"

%struct.darktable_t = type { %struct.dt_codepath_t, i32, i32, ptr, ptr, ptr, ptr, ptr, ptr, ptr, ptr, ptr, ptr, ptr, ptr, ptr, ptr, ptr, ptr, ptr, ptr, ptr, ptr, ptr, ptr, ptr, ptr, ptr, ptr, ptr, [64 x %struct.dt_pthread_mutex_t], %struct.dt_pthread_mutex_t, %struct.dt_pthread_mutex_t, %struct.dt_pthread_mutex_t, %struct.dt_pthread_mutex_t, %struct.dt_pthread_mutex_t, ptr, ptr, ptr, ptr, ptr, ptr, ptr, ptr, ptr, ptr, ptr, ptr, ptr, %struct.dt_lua_state_t, ptr, double, ptr, i32, [47 x i32], i32, i32, ptr, ptr, %struct.dt_sys_resources_t, %struct.dt_backthumb_t, %struct.dt_gimp_t }
%struct.dt_codepath_t = type { i8, [3 x i8] }
%struct.dt_pthread_mutex_t = type { %union.pthread_mutex_t }
%union.pthread_mutex_t = type { %struct.__pthread_mutex_s }
%struct.__pthread_mutex_s = type { i32, i32, i32, i32, i32, i16, i16, %struct.__pthread_internal_list }
%struct.__pthread_internal_list = type { ptr, ptr }
%struct.dt_lua_state_t = type { i32 }
%struct.dt_sys_resources_t = type { i64, i64, ptr, ptr, i32 }
%struct.dt_backthumb_t = type { double, double, i32, i32, i32, i32 }
%struct.dt_gimp_t = type { i32, ptr, ptr, i32, i32 }
%struct.dt_import_session_t = type { i32, ptr, ptr, ptr, ptr }
%struct.dt_variables_params_t = type { ptr, ptr, i32, i32, ptr, i32, i32, ptr }

@darktable = external global %struct.darktable_t, align 8
@.str.3 = private unnamed_addr constant [56 x i8] c"[import_session] Failed to get session filaname pattern\00", align 1
@.str.4 = private unnamed_addr constant [2 x i8] c"/\00", align 1
@.str.5 = private unnamed_addr constant [32 x i8] c"[import_session] File %s exists\00", align 1
@.str.6 = private unnamed_addr constant [28 x i8] c"[import_session] Testing %s\00", align 1
@.str.7 = private unnamed_addr constant [92 x i8] c"couldn't expand to a unique filename for session, please check your import session settings\00", align 1
@.str.8 = private unnamed_addr constant [36 x i8] c"[import_session] Using filename %s.\00", align 1
@.str.11 = private unnamed_addr constant [25 x i8] c"session/filename_pattern\00", align 1
@.str.12 = private unnamed_addr constant [39 x i8] c"[import_session] No name configured...\00", align 1

; Function Attrs: nounwind uwtable
define internal ptr @_import_session_filename_from_pattern(ptr noundef %0, ptr noundef %1) #0 {
  %3 = alloca ptr, align 8
  %4 = alloca ptr, align 8
  %5 = alloca ptr, align 8
  store ptr %0, ptr %3, align 8, !tbaa !6
  store ptr %1, ptr %4, align 8, !tbaa !64
  call void @llvm.lifetime.start.p0(i64 8, ptr %5) #6
  %6 = load ptr, ptr %3, align 8, !tbaa !6
  %7 = getelementptr inbounds nuw %struct.dt_import_session_t, ptr %6, i32 0, i32 2
  %8 = load ptr, ptr %7, align 8, !tbaa !17
  %9 = load ptr, ptr %4, align 8, !tbaa !64
  %10 = call ptr @dt_variables_expand(ptr noundef %8, ptr noundef %9, i32 noundef 1)
  store ptr %10, ptr %5, align 8, !tbaa !64
  %11 = load ptr, ptr %5, align 8, !tbaa !64
  %12 = call ptr @g_strchomp(ptr noundef %11)
  call void @llvm.lifetime.end.p0(i64 8, ptr %5) #6
  ret ptr %12
}

; Function Attrs: nounwind uwtable
define internal ptr @_import_session_filename_pattern() #0 {
  %1 = alloca ptr, align 8
  %2 = alloca ptr, align 8
  %3 = alloca i32, align 4
  call void @llvm.lifetime.start.p0(i64 8, ptr %2) #6
  %4 = call ptr @dt_conf_get_string(ptr noundef @.str.11)
  store ptr %4, ptr %2, align 8, !tbaa !64
  %5 = load ptr, ptr %2, align 8, !tbaa !64
  %6 = icmp ne ptr %5, null
  br i1 %6, label %17, label %7

7:                                                ; preds = %0
  br label %8

8:                                                ; preds = %7
  %9 = load i32, ptr getelementptr inbounds nuw (%struct.darktable_t, ptr @darktable, i32 0, i32 2), align 8, !tbaa !62
  %10 = xor i32 %9, -1
  %11 = and i32 0, %10
  %12 = icmp ne i32 %11, 0
  br i1 %12, label %14, label %13

13:                                               ; preds = %8
  call void (ptr, ...) @dt_print_ext(ptr noundef @.str.12)
  br label %14

14:                                               ; preds = %13, %8
  br label %15

15:                                               ; preds = %14
  br label %16

16:                                               ; preds = %15
  store ptr null, ptr %1, align 8
  store i32 1, ptr %3, align 4
  br label %19

17:                                               ; preds = %0
  %18 = load ptr, ptr %2, align 8, !tbaa !64
  store ptr %18, ptr %1, align 8
  store i32 1, ptr %3, align 4
  br label %19

19:                                               ; preds = %17, %16
  call void @llvm.lifetime.end.p0(i64 8, ptr %2) #6
  %20 = load ptr, ptr %1, align 8
  ret ptr %20
}

; Function Attrs: nounwind uwtable
define ptr @dt_import_session_filename(ptr noundef %0, i32 noundef %1) #0 {
  %3 = alloca ptr, align 8
  %4 = alloca ptr, align 8
  %5 = alloca i32, align 4
  %6 = alloca ptr, align 8
  %7 = alloca ptr, align 8
  %8 = alloca i32, align 4
  %9 = alloca ptr, align 8
  %10 = alloca ptr, align 8
  %11 = alloca ptr, align 8
  store ptr %0, ptr %4, align 8, !tbaa !6
  store i32 %1, ptr %5, align 4, !tbaa !25
  call void @llvm.lifetime.start.p0(i64 8, ptr %6) #6
  store ptr null, ptr %6, align 8, !tbaa !64
  %12 = load ptr, ptr %4, align 8, !tbaa !6
  %13 = getelementptr inbounds nuw %struct.dt_import_session_t, ptr %12, i32 0, i32 4
  %14 = load ptr, ptr %13, align 8, !tbaa !24
  call void @g_free(ptr noundef %14)
  %15 = load ptr, ptr %4, align 8, !tbaa !6
  %16 = getelementptr inbounds nuw %struct.dt_import_session_t, ptr %15, i32 0, i32 4
  store ptr null, ptr %16, align 8, !tbaa !24
  call void @llvm.lifetime.start.p0(i64 8, ptr %7) #6
  %17 = call ptr @_import_session_filename_pattern()
  store ptr %17, ptr %7, align 8, !tbaa !64
  %18 = load ptr, ptr %7, align 8, !tbaa !64
  %19 = icmp eq ptr %18, null
  br i1 %19, label %20, label %30

20:                                               ; preds = %2
  br label %21

21:                                               ; preds = %20
  %22 = load i32, ptr getelementptr inbounds nuw (%struct.darktable_t, ptr @darktable, i32 0, i32 2), align 8, !tbaa !62
  %23 = xor i32 %22, -1
  %24 = and i32 0, %23
  %25 = icmp ne i32 %24, 0
  br i1 %25, label %27, label %26

26:                                               ; preds = %21
  call void (ptr, ...) @dt_print_ext(ptr noundef @.str.3)
  br label %27

27:                                               ; preds = %26, %21
  br label %28

28:                                               ; preds = %27
  br label %29

29:                                               ; preds = %28
  store ptr null, ptr %3, align 8
  store i32 1, ptr %8, align 4
  br label %121

30:                                               ; preds = %2
  call void @llvm.lifetime.start.p0(i64 8, ptr %9) #6
  %31 = load ptr, ptr %4, align 8, !tbaa !6
  %32 = call ptr @dt_import_session_path(ptr noundef %31, i32 noundef 1)
  store ptr %32, ptr %9, align 8, !tbaa !64
  %33 = load i32, ptr %5, align 4, !tbaa !25
  %34 = icmp ne i32 %33, 0
  br i1 %34, label %35, label %42

35:                                               ; preds = %30
  %36 = load ptr, ptr %4, align 8, !tbaa !6
  %37 = getelementptr inbounds nuw %struct.dt_import_session_t, ptr %36, i32 0, i32 2
  %38 = load ptr, ptr %37, align 8, !tbaa !17
  %39 = getelementptr inbounds nuw %struct.dt_variables_params_t, ptr %38, i32 0, i32 0
  %40 = load ptr, ptr %39, align 8, !tbaa !70
  %41 = call noalias ptr @g_strdup(ptr noundef %40)
  store ptr %41, ptr %6, align 8, !tbaa !64
  br label %46

42:                                               ; preds = %30
  %43 = load ptr, ptr %4, align 8, !tbaa !6
  %44 = load ptr, ptr %7, align 8, !tbaa !64
  %45 = call ptr @_import_session_filename_from_pattern(ptr noundef %43, ptr noundef %44)
  store ptr %45, ptr %6, align 8, !tbaa !64
  br label %46

46:                                               ; preds = %42, %35
  call void @llvm.lifetime.start.p0(i64 8, ptr %10) #6
  %47 = load ptr, ptr %9, align 8, !tbaa !64
  %48 = load ptr, ptr %6, align 8, !tbaa !64
  %49 = call noalias ptr (ptr, ptr, ...) @g_build_path(ptr noundef @.str.4, ptr noundef %47, ptr noundef %48, ptr noundef null)
  store ptr %49, ptr %10, align 8, !tbaa !64
  call void @llvm.lifetime.start.p0(i64 8, ptr %11) #6
  %50 = load ptr, ptr %10, align 8, !tbaa !64
  store ptr %50, ptr %11, align 8, !tbaa !64
  %51 = load ptr, ptr %10, align 8, !tbaa !64
  %52 = call i32 @g_file_test(ptr noundef %51, i32 noundef 16)
  %53 = icmp eq i32 %52, 1
  br i1 %53, label %54, label %99

54:                                               ; preds = %46
  br label %55

55:                                               ; preds = %54
  %56 = load i32, ptr getelementptr inbounds nuw (%struct.darktable_t, ptr @darktable, i32 0, i32 2), align 8, !tbaa !62
  %57 = xor i32 %56, -1
  %58 = and i32 0, %57
  %59 = icmp ne i32 %58, 0
  br i1 %59, label %62, label %60

60:                                               ; preds = %55
  %61 = load ptr, ptr %10, align 8, !tbaa !64
  call void (ptr, ...) @dt_print_ext(ptr noundef @.str.5, ptr noundef %61)
  br label %62

62:                                               ; preds = %60, %55
  br label %63

63:                                               ; preds = %62
  br label %64

64:                                               ; preds = %63
  br label %65

65:                                               ; preds = %94, %64
  %66 = load ptr, ptr %6, align 8, !tbaa !64
  call void @g_free(ptr noundef %66)
  %67 = load ptr, ptr %4, align 8, !tbaa !6
  %68 = load ptr, ptr %7, align 8, !tbaa !64
  %69 = call ptr @_import_session_filename_from_pattern(ptr noundef %67, ptr noundef %68)
  store ptr %69, ptr %6, align 8, !tbaa !64
  %70 = load ptr, ptr %9, align 8, !tbaa !64
  %71 = load ptr, ptr %6, align 8, !tbaa !64
  %72 = call noalias ptr (ptr, ptr, ...) @g_build_path(ptr noundef @.str.4, ptr noundef %70, ptr noundef %71, ptr noundef null)
  store ptr %72, ptr %10, align 8, !tbaa !64
  br label %73

73:                                               ; preds = %65
  %74 = load i32, ptr getelementptr inbounds nuw (%struct.darktable_t, ptr @darktable, i32 0, i32 2), align 8, !tbaa !62
  %75 = xor i32 %74, -1
  %76 = and i32 0, %75
  %77 = icmp ne i32 %76, 0
  br i1 %77, label %80, label %78

78:                                               ; preds = %73
  %79 = load ptr, ptr %10, align 8, !tbaa !64
  call void (ptr, ...) @dt_print_ext(ptr noundef @.str.6, ptr noundef %79)
  br label %80

80:                                               ; preds = %78, %73
  br label %81

81:                                               ; preds = %80
  br label %82

82:                                               ; preds = %81
  %83 = load ptr, ptr %11, align 8, !tbaa !64
  %84 = load ptr, ptr %10, align 8, !tbaa !64
  %85 = call i32 @strcmp(ptr noundef %83, ptr noundef %84) #8
  %86 = icmp eq i32 %85, 0
  br i1 %86, label %87, label %91

87:                                               ; preds = %82
  %88 = load ptr, ptr %11, align 8, !tbaa !64
  call void @g_free(ptr noundef %88)
  %89 = load ptr, ptr %10, align 8, !tbaa !64
  call void @g_free(ptr noundef %89)
  %90 = call ptr @dcgettext(ptr noundef null, ptr noundef @.str.7, i32 noundef 5) #6
  call void (ptr, ...) @dt_control_log(ptr noundef %90)
  store ptr null, ptr %3, align 8
  store i32 1, ptr %8, align 4
  br label %120

91:                                               ; preds = %82
  %92 = load ptr, ptr %11, align 8, !tbaa !64
  call void @g_free(ptr noundef %92)
  %93 = load ptr, ptr %10, align 8, !tbaa !64
  store ptr %93, ptr %11, align 8, !tbaa !64
  br label %94

94:                                               ; preds = %91
  %95 = load ptr, ptr %10, align 8, !tbaa !64
  %96 = call i32 @g_file_test(ptr noundef %95, i32 noundef 16)
  %97 = icmp eq i32 %96, 1
  br i1 %97, label %65, label %98

98:                                               ; preds = %94
  br label %99

99:                                               ; preds = %98, %46
  %100 = load ptr, ptr %11, align 8, !tbaa !64
  call void @g_free(ptr noundef %100)
  %101 = load ptr, ptr %7, align 8, !tbaa !64
  call void @g_free(ptr noundef %101)
  %102 = load ptr, ptr %6, align 8, !tbaa !64
  %103 = load ptr, ptr %4, align 8, !tbaa !6
  %104 = getelementptr inbounds nuw %struct.dt_import_session_t, ptr %103, i32 0, i32 4
  store ptr %102, ptr %104, align 8, !tbaa !24
  br label %105

105:                                              ; preds = %99
  %106 = load i32, ptr getelementptr inbounds nuw (%struct.darktable_t, ptr @darktable, i32 0, i32 2), align 8, !tbaa !62
  %107 = xor i32 %106, -1
  %108 = and i32 0, %107
  %109 = icmp ne i32 %108, 0
  br i1 %109, label %114, label %110

110:                                              ; preds = %105
  %111 = load ptr, ptr %4, align 8, !tbaa !6
  %112 = getelementptr inbounds nuw %struct.dt_import_session_t, ptr %111, i32 0, i32 4
  %113 = load ptr, ptr %112, align 8, !tbaa !24
  call void (ptr, ...) @dt_print_ext(ptr noundef @.str.8, ptr noundef %113)
  br label %114

114:                                              ; preds = %110, %105
  br label %115

115:                                              ; preds = %114
  br label %116

116:                                              ; preds = %115
  %117 = load ptr, ptr %4, align 8, !tbaa !6
  %118 = getelementptr inbounds nuw %struct.dt_import_session_t, ptr %117, i32 0, i32 4
  %119 = load ptr, ptr %118, align 8, !tbaa !24
  store ptr %119, ptr %3, align 8
  store i32 1, ptr %8, align 4
  br label %120

120:                                              ; preds = %116, %87
  call void @llvm.lifetime.end.p0(i64 8, ptr %11) #6
  call void @llvm.lifetime.end.p0(i64 8, ptr %10) #6
  call void @llvm.lifetime.end.p0(i64 8, ptr %9) #6
  br label %121

121:                                              ; preds = %120, %29
  call void @llvm.lifetime.end.p0(i64 8, ptr %7) #6
  call void @llvm.lifetime.end.p0(i64 8, ptr %6) #6
  %122 = load ptr, ptr %3, align 8
  ret ptr %122
}