; Function Attrs: nounwind uwtable
define ptr @dt_import_session_filename(ptr noundef captures(none) %0, i32 noundef %1) local_unnamed_addr #0 {
  %3 = getelementptr inbounds nuw i8, ptr %0, i64 32
  %4 = load ptr, ptr %3, align 8, !tbaa !22
  tail call void @g_free(ptr noundef %4) #9
  store ptr null, ptr %3, align 8, !tbaa !22
  %5 = tail call ptr @dt_conf_get_string(ptr noundef nonnull @.str.11) #9
  %.not.i = icmp eq ptr %5, null
  br i1 %.not.i, label %6, label %_import_session_filename_pattern.exit

6:                                                ; preds = %2
  tail call void (ptr, ...) @dt_print_ext(ptr noundef nonnull @.str.12) #9
  tail call void (ptr, ...) @dt_print_ext(ptr noundef nonnull @.str.3) #9
  br label %33

_import_session_filename_pattern.exit:            ; preds = %2
  %7 = tail call ptr @dt_import_session_path(ptr noundef nonnull %0, i32 noundef 1)
  %.not = icmp eq i32 %1, 0
  %8 = getelementptr i8, ptr %0, i64 16
  %.val = load ptr, ptr %8, align 8, !tbaa !15
  br i1 %.not, label %12, label %9

9:                                                ; preds = %_import_session_filename_pattern.exit
  %10 = load ptr, ptr %.val, align 8, !tbaa !64
  %11 = tail call noalias ptr @g_strdup(ptr noundef %10) #9
  br label %15

12:                                               ; preds = %_import_session_filename_pattern.exit
  %13 = tail call ptr @dt_variables_expand(ptr noundef %.val, ptr noundef nonnull %5, i32 noundef 1) #9
  %14 = tail call ptr @g_strchomp(ptr noundef %13) #9
  br label %15

15:                                               ; preds = %12, %9
  %.034 = phi ptr [ %11, %9 ], [ %14, %12 ]
  %16 = tail call noalias ptr (ptr, ptr, ...) @g_build_path(ptr noundef nonnull @.str.4, ptr noundef %7, ptr noundef %.034, ptr noundef null) #9
  %17 = tail call i32 @g_file_test(ptr noundef %16, i32 noundef 16) #9
  %18 = icmp eq i32 %17, 1
  br i1 %18, label %19, label %.loopexit

19:                                               ; preds = %15
  tail call void (ptr, ...) @dt_print_ext(ptr noundef nonnull @.str.5, ptr noundef %16) #9
  %20 = getelementptr i8, ptr %0, i64 16
  br label %21

21:                                               ; preds = %29, %19
  %.2 = phi ptr [ %.034, %19 ], [ %23, %29 ]
  %.1 = phi ptr [ %16, %19 ], [ %24, %29 ]
  tail call void @g_free(ptr noundef %.2) #9
  %.val37 = load ptr, ptr %20, align 8, !tbaa !15
  %22 = tail call ptr @dt_variables_expand(ptr noundef %.val37, ptr noundef nonnull %5, i32 noundef 1) #9
  %23 = tail call ptr @g_strchomp(ptr noundef %22) #9
  %24 = tail call noalias ptr (ptr, ptr, ...) @g_build_path(ptr noundef nonnull @.str.4, ptr noundef %7, ptr noundef %23, ptr noundef null) #9
  tail call void (ptr, ...) @dt_print_ext(ptr noundef nonnull @.str.6, ptr noundef %24) #9
  %25 = tail call i32 @strcmp(ptr noundef nonnull dereferenceable(1) %.1, ptr noundef nonnull dereferenceable(1) %24) #10
  %26 = icmp eq i32 %25, 0
  tail call void @g_free(ptr noundef nonnull %.1) #9
  br i1 %26, label %27, label %29

27:                                               ; preds = %21
  tail call void @g_free(ptr noundef nonnull %24) #9
  %28 = tail call ptr @dcgettext(ptr noundef null, ptr noundef nonnull @.str.7, i32 noundef 5) #9
  tail call void (ptr, ...) @dt_control_log(ptr noundef %28) #9
  br label %33

29:                                               ; preds = %21
  %30 = tail call i32 @g_file_test(ptr noundef nonnull %24, i32 noundef 16) #9
  %31 = icmp eq i32 %30, 1
  br i1 %31, label %21, label %.loopexit

.loopexit:                                        ; preds = %29, %15
  %.135 = phi ptr [ %.034, %15 ], [ %23, %29 ]
  %.0 = phi ptr [ %16, %15 ], [ %24, %29 ]
  tail call void @g_free(ptr noundef %.0) #9
  tail call void @g_free(ptr noundef nonnull %5) #9
  store ptr %.135, ptr %3, align 8, !tbaa !22
  tail call void (ptr, ...) @dt_print_ext(ptr noundef nonnull @.str.8, ptr noundef %.135) #9
  %32 = load ptr, ptr %3, align 8, !tbaa !22
  br label %33

33:                                               ; preds = %27, %.loopexit, %6
  %.032 = phi ptr [ null, %6 ], [ null, %27 ], [ %32, %.loopexit ]
  ret ptr %.032
}